target datalayout = "e-m:e-p270:32:32-p271:32:32-p272:64:64-i64:64-i128:128-f80:128-n8:16:32:64-S128"
target triple = "x86_64-pc-linux-gnu"

%"struct.Luau::CodeGen::FunctionStats" = type { %"class.std::__cxx11::basic_string", i32, i32, i32, i32, i32, %"class.std::vector" }
%"class.std::__cxx11::basic_string" = type { %"struct.std::__cxx11::basic_string<char>::_Alloc_hider", i64, %union.anon }
%"struct.std::__cxx11::basic_string<char>::_Alloc_hider" = type { ptr }
%union.anon = type { i64, [8 x i8] }
%"class.std::vector" = type { %"struct.std::_Vector_base" }
%"struct.std::_Vector_base" = type { %"struct.std::_Vector_base<std::vector<unsigned int>, std::allocator<std::vector<unsigned int>>>::_Vector_impl" }
%"struct.std::_Vector_base<std::vector<unsigned int>, std::allocator<std::vector<unsigned int>>>::_Vector_impl" = type { %"struct.std::_Vector_base<std::vector<unsigned int>, std::allocator<std::vector<unsigned int>>>::_Vector_impl_data" }
%"struct.std::_Vector_base<std::vector<unsigned int>, std::allocator<std::vector<unsigned int>>>::_Vector_impl_data" = type { ptr, ptr, ptr }
%"class.std::vector.3" = type { %"struct.std::_Vector_base.4" }
%"struct.std::_Vector_base.4" = type { %"struct.std::_Vector_base<unsigned int, std::allocator<unsigned int>>::_Vector_impl" }
%"struct.std::_Vector_base<unsigned int, std::allocator<unsigned int>>::_Vector_impl" = type { %"struct.std::_Vector_base<unsigned int, std::allocator<unsigned int>>::_Vector_impl_data" }
%"struct.std::_Vector_base<unsigned int, std::allocator<unsigned int>>::_Vector_impl_data" = type { ptr, ptr, ptr }

@.str = private unnamed_addr constant [19 x i8] c"                {\0A\00", align 1
@.str.52 = private unnamed_addr constant [35 x i8] c"                    \22name\22: \22%s\22,\0A\00", align 1
@.str.53 = private unnamed_addr constant [33 x i8] c"                    \22line\22: %d,\0A\00", align 1
@.str.54 = private unnamed_addr constant [39 x i8] c"                    \22bcodeCount\22: %u,\0A\00", align 1
@.str.55 = private unnamed_addr constant [36 x i8] c"                    \22irCount\22: %u,\0A\00", align 1
@.str.56 = private unnamed_addr constant [37 x i8] c"                    \22asmCount\22: %u,\0A\00", align 1
@.str.57 = private unnamed_addr constant [36 x i8] c"                    \22asmSize\22: %u,\0A\00", align 1
@.str.58 = private unnamed_addr constant [40 x i8] c"                    \22bytecodeSummary\22: \00", align 1
@.str.59 = private unnamed_addr constant [3 x i8] c"[]\00", align 1
@.str.60 = private unnamed_addr constant [3 x i8] c"[\0A\00", align 1
@.str.61 = private unnamed_addr constant [26 x i8] c"                        [\00", align 1
@.str.62 = private unnamed_addr constant [3 x i8] c"%u\00", align 1
@.str.63 = private unnamed_addr constant [3 x i8] c", \00", align 1
@.str.64 = private unnamed_addr constant [2 x i8] c"]\00", align 1
@.str.65 = private unnamed_addr constant [3 x i8] c",\0A\00", align 1
@.str.66 = private unnamed_addr constant [23 x i8] c"\0A                    ]\00", align 1
@.str.67 = private unnamed_addr constant [19 x i8] c"\0A                }\00", align 1

; Function Attrs: mustprogress nounwind uwtable
define linkonce_odr dso_local noundef nonnull align 4 dereferenceable(4) ptr @_ZNKSt6vectorIjSaIjEEixEm(ptr noundef nonnull align 8 dereferenceable(24) %0, i64 noundef %1) #1 comdat align 2 {
  %3 = alloca ptr, align 8
  %4 = alloca i64, align 8
  store ptr %0, ptr %3, align 8
  store i64 %1, ptr %4, align 8
  %5 = load ptr, ptr %3, align 8
  %6 = getelementptr inbounds %"struct.std::_Vector_base.4", ptr %5, i32 0, i32 0
  %7 = getelementptr inbounds %"struct.std::_Vector_base<unsigned int, std::allocator<unsigned int>>::_Vector_impl_data", ptr %6, i32 0, i32 0
  %8 = load ptr, ptr %7, align 8
  %9 = load i64, ptr %4, align 8
  %10 = getelementptr inbounds i32, ptr %8, i64 %9
  ret ptr %10
}

; Function Attrs: mustprogress nounwind uwtable
define linkonce_odr dso_local noundef i64 @_ZNKSt6vectorIjSaIjEE4sizeEv(ptr noundef nonnull align 8 dereferenceable(24) %0) #1 comdat align 2 {
  %2 = alloca ptr, align 8
  store ptr %0, ptr %2, align 8
  %3 = load ptr, ptr %2, align 8
  %4 = getelementptr inbounds %"struct.std::_Vector_base.4", ptr %3, i32 0, i32 0
  %5 = getelementptr inbounds %"struct.std::_Vector_base<unsigned int, std::allocator<unsigned int>>::_Vector_impl_data", ptr %4, i32 0, i32 1
  %6 = load ptr, ptr %5, align 8
  %7 = getelementptr inbounds %"struct.std::_Vector_base.4", ptr %3, i32 0, i32 0
  %8 = getelementptr inbounds %"struct.std::_Vector_base<unsigned int, std::allocator<unsigned int>>::_Vector_impl_data", ptr %7, i32 0, i32 0
  %9 = load ptr, ptr %8, align 8
  %10 = ptrtoint ptr %6 to i64
  %11 = ptrtoint ptr %9 to i64
  %12 = sub i64 %10, %11
  %13 = sdiv exact i64 %12, 4
  ret i64 %13
}

; Function Attrs: mustprogress nounwind uwtable
define linkonce_odr dso_local noundef nonnull align 8 dereferenceable(24) ptr @_ZNKSt6vectorIS_IjSaIjEESaIS1_EEixEm(ptr noundef nonnull align 8 dereferenceable(24) %0, i64 noundef %1) #1 comdat align 2 {
  %3 = alloca ptr, align 8
  %4 = alloca i64, align 8
  store ptr %0, ptr %3, align 8
  store i64 %1, ptr %4, align 8
  %5 = load ptr, ptr %3, align 8
  %6 = getelementptr inbounds %"struct.std::_Vector_base", ptr %5, i32 0, i32 0
  %7 = getelementptr inbounds %"struct.std::_Vector_base<std::vector<unsigned int>, std::allocator<std::vector<unsigned int>>>::_Vector_impl_data", ptr %6, i32 0, i32 0
  %8 = load ptr, ptr %7, align 8
  %9 = load i64, ptr %4, align 8
  %10 = getelementptr inbounds %"class.std::vector.3", ptr %8, i64 %9
  ret ptr %10
}

; Function Attrs: mustprogress nounwind uwtable
define linkonce_odr dso_local noundef i64 @_ZNKSt6vectorIS_IjSaIjEESaIS1_EE4sizeEv(ptr noundef nonnull align 8 dereferenceable(24) %0) #1 comdat align 2 {
  %2 = alloca ptr, align 8
  store ptr %0, ptr %2, align 8
  %3 = load ptr, ptr %2, align 8
  %4 = getelementptr inbounds %"struct.std::_Vector_base", ptr %3, i32 0, i32 0
  %5 = getelementptr inbounds %"struct.std::_Vector_base<std::vector<unsigned int>, std::allocator<std::vector<unsigned int>>>::_Vector_impl_data", ptr %4, i32 0, i32 1
  %6 = load ptr, ptr %5, align 8
  %7 = getelementptr inbounds %"struct.std::_Vector_base", ptr %3, i32 0, i32 0
  %8 = getelementptr inbounds %"struct.std::_Vector_base<std::vector<unsigned int>, std::allocator<std::vector<unsigned int>>>::_Vector_impl_data", ptr %7, i32 0, i32 0
  %9 = load ptr, ptr %8, align 8
  %10 = ptrtoint ptr %6 to i64
  %11 = ptrtoint ptr %9 to i64
  %12 = sub i64 %10, %11
  %13 = sdiv exact i64 %12, 24
  ret i64 %13
}

; Function Attrs: mustprogress nounwind uwtable
define dso_local void @_Z22serializeFunctionStatsP8_IO_FILERKN4Luau7CodeGen13FunctionStatsE(ptr noundef %0, ptr noundef nonnull align 8 dereferenceable(80) %1) #1 {
  %3 = alloca ptr, align 8
  %4 = alloca ptr, align 8
  %5 = alloca i64, align 8
  %6 = alloca i64, align 8
  %7 = alloca ptr, align 8
  %8 = alloca i64, align 8
  store ptr %0, ptr %3, align 8
  store ptr %1, ptr %4, align 8
  %9 = load ptr, ptr %3, align 8
  %10 = call i32 (ptr, ptr, ...) @fprintf(ptr noundef %9, ptr noundef @.str) #16
  %11 = load ptr, ptr %3, align 8
  %12 = load ptr, ptr %4, align 8
  %13 = getelementptr inbounds %"struct.Luau::CodeGen::FunctionStats", ptr %12, i32 0, i32 0
  %14 = call noundef ptr @_ZNKSt7__cxx1112basic_stringIcSt11char_traitsIcESaIcEE5c_strEv(ptr noundef nonnull align 8 dereferenceable(32) %13) #16
  %15 = call i32 (ptr, ptr, ...) @fprintf(ptr noundef %11, ptr noundef @.str.52, ptr noundef %14) #16
  %16 = load ptr, ptr %3, align 8
  %17 = load ptr, ptr %4, align 8
  %18 = getelementptr inbounds %"struct.Luau::CodeGen::FunctionStats", ptr %17, i32 0, i32 1
  %19 = load i32, ptr %18, align 8
  %20 = call i32 (ptr, ptr, ...) @fprintf(ptr noundef %16, ptr noundef @.str.53, i32 noundef %19) #16
  %21 = load ptr, ptr %3, align 8
  %22 = load ptr, ptr %4, align 8
  %23 = getelementptr inbounds %"struct.Luau::CodeGen::FunctionStats", ptr %22, i32 0, i32 2
  %24 = load i32, ptr %23, align 4
  %25 = call i32 (ptr, ptr, ...) @fprintf(ptr noundef %21, ptr noundef @.str.54, i32 noundef %24) #16
  %26 = load ptr, ptr %3, align 8
  %27 = load ptr, ptr %4, align 8
  %28 = getelementptr inbounds %"struct.Luau::CodeGen::FunctionStats", ptr %27, i32 0, i32 3
  %29 = load i32, ptr %28, align 8
  %30 = call i32 (ptr, ptr, ...) @fprintf(ptr noundef %26, ptr noundef @.str.55, i32 noundef %29) #16
  %31 = load ptr, ptr %3, align 8
  %32 = load ptr, ptr %4, align 8
  %33 = getelementptr inbounds %"struct.Luau::CodeGen::FunctionStats", ptr %32, i32 0, i32 4
  %34 = load i32, ptr %33, align 4
  %35 = call i32 (ptr, ptr, ...) @fprintf(ptr noundef %31, ptr noundef @.str.56, i32 noundef %34) #16
  %36 = load ptr, ptr %3, align 8
  %37 = load ptr, ptr %4, align 8
  %38 = getelementptr inbounds %"struct.Luau::CodeGen::FunctionStats", ptr %37, i32 0, i32 5
  %39 = load i32, ptr %38, align 8
  %40 = call i32 (ptr, ptr, ...) @fprintf(ptr noundef %36, ptr noundef @.str.57, i32 noundef %39) #16
  %41 = load ptr, ptr %3, align 8
  %42 = call i32 (ptr, ptr, ...) @fprintf(ptr noundef %41, ptr noundef @.str.58) #16
  %43 = load ptr, ptr %4, align 8
  %44 = getelementptr inbounds %"struct.Luau::CodeGen::FunctionStats", ptr %43, i32 0, i32 6
  %45 = call noundef i64 @_ZNKSt6vectorIS_IjSaIjEESaIS1_EE4sizeEv(ptr noundef nonnull align 8 dereferenceable(24) %44) #16
  store i64 %45, ptr %5, align 8
  %46 = load i64, ptr %5, align 8
  %47 = icmp eq i64 %46, 0
  br i1 %47, label %48, label %51

48:                                               ; preds = %2
  %49 = load ptr, ptr %3, align 8
  %50 = call i32 (ptr, ptr, ...) @fprintf(ptr noundef %49, ptr noundef @.str.59) #16
  br label %108

51:                                               ; preds = %2
  %52 = load ptr, ptr %3, align 8
  %53 = call i32 (ptr, ptr, ...) @fprintf(ptr noundef %52, ptr noundef @.str.60) #16
  store i64 0, ptr %6, align 8
  br label %54

54:                                               ; preds = %102, %51
  %55 = load i64, ptr %6, align 8
  %56 = load i64, ptr %5, align 8
  %57 = icmp ult i64 %55, %56
  br i1 %57, label %58, label %105

58:                                               ; preds = %54
  %59 = load ptr, ptr %4, align 8
  %60 = getelementptr inbounds %"struct.Luau::CodeGen::FunctionStats", ptr %59, i32 0, i32 6
  %61 = load i64, ptr %6, align 8
  %62 = call noundef nonnull align 8 dereferenceable(24) ptr @_ZNKSt6vectorIS_IjSaIjEESaIS1_EEixEm(ptr noundef nonnull align 8 dereferenceable(24) %60, i64 noundef %61) #16
  store ptr %62, ptr %7, align 8
  %63 = load ptr, ptr %3, align 8
  %64 = call i32 (ptr, ptr, ...) @fprintf(ptr noundef %63, ptr noundef @.str.61) #16
  store i64 0, ptr %8, align 8
  br label %65

65:                                               ; preds = %86, %58
  %66 = load i64, ptr %8, align 8
  %67 = load ptr, ptr %7, align 8
  %68 = call noundef i64 @_ZNKSt6vectorIjSaIjEE4sizeEv(ptr noundef nonnull align 8 dereferenceable(24) %67) #16
  %69 = icmp ult i64 %66, %68
  br i1 %69, label %70, label %89

70:                                               ; preds = %65
  %71 = load ptr, ptr %3, align 8
  %72 = load ptr, ptr %7, align 8
  %73 = load i64, ptr %8, align 8
  %74 = call noundef nonnull align 4 dereferenceable(4) ptr @_ZNKSt6vectorIjSaIjEEixEm(ptr noundef nonnull align 8 dereferenceable(24) %72, i64 noundef %73) #16
  %75 = load i32, ptr %74, align 4
  %76 = call i32 (ptr, ptr, ...) @fprintf(ptr noundef %71, ptr noundef @.str.62, i32 noundef %75) #16
  %77 = load i64, ptr %8, align 8
  %78 = load ptr, ptr %7, align 8
  %79 = call noundef i64 @_ZNKSt6vectorIjSaIjEE4sizeEv(ptr noundef nonnull align 8 dereferenceable(24) %78) #16
  %80 = sub i64 %79, 1
  %81 = icmp ult i64 %77, %80
  br i1 %81, label %82, label %85

82:                                               ; preds = %70
  %83 = load ptr, ptr %3, align 8
  %84 = call i32 (ptr, ptr, ...) @fprintf(ptr noundef %83, ptr noundef @.str.63) #16
  br label %85

85:                                               ; preds = %82, %70
  br label %86

86:                                               ; preds = %85
  %87 = load i64, ptr %8, align 8
  %88 = add i64 %87, 1
  store i64 %88, ptr %8, align 8
  br label %65, !llvm.loop !5

89:                                               ; preds = %65
  %90 = load ptr, ptr %3, align 8
  %91 = call i32 (ptr, ptr, ...) @fprintf(ptr noundef %90, ptr noundef @.str.64) #16
  %92 = load i64, ptr %6, align 8
  %93 = load ptr, ptr %4, align 8
  %94 = getelementptr inbounds %"struct.Luau::CodeGen::FunctionStats", ptr %93, i32 0, i32 6
  %95 = call noundef i64 @_ZNKSt6vectorIS_IjSaIjEESaIS1_EE4sizeEv(ptr noundef nonnull align 8 dereferenceable(24) %94) #16
  %96 = sub i64 %95, 1
  %97 = icmp ult i64 %92, %96
  br i1 %97, label %98, label %101

98:                                               ; preds = %89
  %99 = load ptr, ptr %3, align 8
  %100 = call i32 (ptr, ptr, ...) @fprintf(ptr noundef %99, ptr noundef @.str.65) #16
  br label %101

101:                                              ; preds = %98, %89
  br label %102

102:                                              ; preds = %101
  %103 = load i64, ptr %6, align 8
  %104 = add i64 %103, 1
  store i64 %104, ptr %6, align 8
  br label %54, !llvm.loop !7

105:                                              ; preds = %54
  %106 = load ptr, ptr %3, align 8
  %107 = call i32 (ptr, ptr, ...) @fprintf(ptr noundef %106, ptr noundef @.str.66) #16
  br label %108

108:                                              ; preds = %105, %48
  %109 = load ptr, ptr %3, align 8
  %110 = call i32 (ptr, ptr, ...) @fprintf(ptr noundef %109, ptr noundef @.str.67) #16
  ret void
}