; Function Attrs: mustprogress nounwind uwtable
define dso_local void @_Z22serializeFunctionStatsP8_IO_FILERKN4Luau7CodeGen13FunctionStatsE(ptr nocapture noundef %0, ptr noundef nonnull align 8 dereferenceable(80) %1) local_unnamed_addr #1 {
  %3 = tail call i64 @fwrite(ptr nonnull @.str, i64 18, i64 1, ptr %0)
  %4 = tail call noundef ptr @_ZNKSt7__cxx1112basic_stringIcSt11char_traitsIcESaIcEE5c_strEv(ptr noundef nonnull align 8 dereferenceable(32) %1) #23
  %5 = tail call i32 (ptr, ptr, ...) @fprintf(ptr noundef %0, ptr noundef nonnull @.str.52, ptr noundef %4) #23
  %6 = getelementptr inbounds i8, ptr %1, i64 32
  %7 = load i32, ptr %6, align 8
  %8 = tail call i32 (ptr, ptr, ...) @fprintf(ptr noundef %0, ptr noundef nonnull @.str.53, i32 noundef %7) #23
  %9 = getelementptr inbounds i8, ptr %1, i64 36
  %10 = load i32, ptr %9, align 4
  %11 = tail call i32 (ptr, ptr, ...) @fprintf(ptr noundef %0, ptr noundef nonnull @.str.54, i32 noundef %10) #23
  %12 = getelementptr inbounds i8, ptr %1, i64 40
  %13 = load i32, ptr %12, align 8
  %14 = tail call i32 (ptr, ptr, ...) @fprintf(ptr noundef %0, ptr noundef nonnull @.str.55, i32 noundef %13) #23
  %15 = getelementptr inbounds i8, ptr %1, i64 44
  %16 = load i32, ptr %15, align 4
  %17 = tail call i32 (ptr, ptr, ...) @fprintf(ptr noundef %0, ptr noundef nonnull @.str.56, i32 noundef %16) #23
  %18 = getelementptr inbounds i8, ptr %1, i64 48
  %19 = load i32, ptr %18, align 8
  %20 = tail call i32 (ptr, ptr, ...) @fprintf(ptr noundef %0, ptr noundef nonnull @.str.57, i32 noundef %19) #23
  %21 = tail call i64 @fwrite(ptr nonnull @.str.58, i64 39, i64 1, ptr %0)
  %22 = getelementptr inbounds i8, ptr %1, i64 56
  %23 = getelementptr inbounds i8, ptr %1, i64 64
  %24 = load ptr, ptr %23, align 8
  %25 = load ptr, ptr %22, align 8
  %26 = icmp eq ptr %24, %25
  br i1 %26, label %27, label %.lr.ph43.preheader

27:                                               ; preds = %2
  %28 = tail call i64 @fwrite(ptr nonnull @.str.59, i64 2, i64 1, ptr %0)
  br label %71

.lr.ph43.preheader:                               ; preds = %2
  %29 = ptrtoint ptr %24 to i64
  %30 = ptrtoint ptr %25 to i64
  %31 = sub i64 %29, %30
  %32 = sdiv exact i64 %31, 24
  %33 = tail call i64 @fwrite(ptr nonnull @.str.60, i64 2, i64 1, ptr %0)
  %umax = tail call i64 @llvm.umax.i64(i64 %32, i64 1)
  br label %.lr.ph43

.lr.ph43:                                         ; preds = %.lr.ph43.preheader, %68
  %.03841 = phi i64 [ %69, %68 ], [ 0, %.lr.ph43.preheader ]
  %34 = load ptr, ptr %22, align 8
  %35 = getelementptr inbounds %"class.std::vector.3", ptr %34, i64 %.03841
  %36 = tail call i64 @fwrite(ptr nonnull @.str.61, i64 25, i64 1, ptr %0)
  %37 = getelementptr inbounds i8, ptr %35, i64 8
  %38 = load ptr, ptr %37, align 8
  %39 = load ptr, ptr %35, align 8
  %.not = icmp eq ptr %38, %39
  br i1 %.not, label %._crit_edge, label %.lr.ph

.lr.ph:                                           ; preds = %.lr.ph43, %54
  %40 = phi ptr [ %55, %54 ], [ %39, %.lr.ph43 ]
  %.040 = phi i64 [ %56, %54 ], [ 0, %.lr.ph43 ]
  %41 = getelementptr inbounds i32, ptr %40, i64 %.040
  %42 = load i32, ptr %41, align 4
  %43 = tail call i32 (ptr, ptr, ...) @fprintf(ptr noundef %0, ptr noundef nonnull @.str.62, i32 noundef %42) #23
  %44 = load ptr, ptr %37, align 8
  %45 = load ptr, ptr %35, align 8
  %46 = ptrtoint ptr %44 to i64
  %47 = ptrtoint ptr %45 to i64
  %48 = sub i64 %46, %47
  %49 = ashr exact i64 %48, 2
  %50 = add nsw i64 %49, -1
  %51 = icmp ult i64 %.040, %50
  br i1 %51, label %52, label %54

52:                                               ; preds = %.lr.ph
  %53 = tail call i64 @fwrite(ptr nonnull @.str.63, i64 2, i64 1, ptr %0)
  %.pre = load ptr, ptr %37, align 8
  %.pre45 = load ptr, ptr %35, align 8
  %.pre46 = ptrtoint ptr %.pre to i64
  %.pre47 = ptrtoint ptr %.pre45 to i64
  %.pre49 = sub i64 %.pre46, %.pre47
  %.pre51 = ashr exact i64 %.pre49, 2
  br label %54

54:                                               ; preds = %.lr.ph, %52
  %.pre-phi52 = phi i64 [ %49, %.lr.ph ], [ %.pre51, %52 ]
  %55 = phi ptr [ %45, %.lr.ph ], [ %.pre45, %52 ]
  %56 = add nuw i64 %.040, 1
  %57 = icmp ult i64 %56, %.pre-phi52
  br i1 %57, label %.lr.ph, label %._crit_edge, !llvm.loop !5

._crit_edge:                                      ; preds = %54, %.lr.ph43
  %fputc = tail call i32 @fputc(i32 93, ptr %0)
  %58 = load ptr, ptr %23, align 8
  %59 = load ptr, ptr %22, align 8
  %60 = ptrtoint ptr %58 to i64
  %61 = ptrtoint ptr %59 to i64
  %62 = sub i64 %60, %61
  %63 = sdiv exact i64 %62, 24
  %64 = add nsw i64 %63, -1
  %65 = icmp ult i64 %.03841, %64
  br i1 %65, label %66, label %68

66:                                               ; preds = %._crit_edge
  %67 = tail call i64 @fwrite(ptr nonnull @.str.65, i64 2, i64 1, ptr %0)
  br label %68

68:                                               ; preds = %._crit_edge, %66
  %69 = add nuw i64 %.03841, 1
  %exitcond.not = icmp eq i64 %69, %umax
  br i1 %exitcond.not, label %._crit_edge44, label %.lr.ph43, !llvm.loop !7

._crit_edge44:                                    ; preds = %68
  %70 = tail call i64 @fwrite(ptr nonnull @.str.66, i64 22, i64 1, ptr %0)
  br label %71

71:                                               ; preds = %._crit_edge44, %27
  %72 = tail call i64 @fwrite(ptr nonnull @.str.67, i64 18, i64 1, ptr %0)
  ret void
}